target datalayout = "e-m:e-p270:32:32-p271:32:32-p272:64:64-i64:64-i128:128-f80:128-n8:16:32:64-S128"
target triple = "x86_64-pc-linux-gnu"

; Function Attrs: nounwind uwtable
define internal i64 @mod_strcspn(ptr noundef %0, ptr noundef %1) #0 {
  %3 = alloca ptr, align 8
  %4 = alloca ptr, align 8
  %5 = alloca i32, align 4
  %6 = alloca i32, align 4
  store ptr %0, ptr %3, align 8, !tbaa !43
  store ptr %1, ptr %4, align 8, !tbaa !43
  call void @llvm.lifetime.start.p0(i64 4, ptr %5) #8
  call void @llvm.lifetime.start.p0(i64 4, ptr %6) #8
  store i32 0, ptr %5, align 4, !tbaa !46
  br label %7

7:                                                ; preds = %171, %2
  %8 = load ptr, ptr %3, align 8, !tbaa !43
  %9 = icmp ne ptr %8, null
  br i1 %9, label %10, label %18

10:                                               ; preds = %7
  %11 = load ptr, ptr %3, align 8, !tbaa !43
  %12 = load i32, ptr %5, align 4, !tbaa !46
  %13 = sext i32 %12 to i64
  %14 = getelementptr inbounds i8, ptr %11, i64 %13
  %15 = load i8, ptr %14, align 1, !tbaa !42
  %16 = sext i8 %15 to i32
  %17 = icmp ne i32 %16, 0
  br label %18

18:                                               ; preds = %10, %7
  %19 = phi i1 [ false, %7 ], [ %17, %10 ]
  br i1 %19, label %20, label %174

20:                                               ; preds = %18
  %21 = load ptr, ptr %3, align 8, !tbaa !43
  %22 = load i32, ptr %5, align 4, !tbaa !46
  %23 = sext i32 %22 to i64
  %24 = getelementptr inbounds i8, ptr %21, i64 %23
  %25 = load i8, ptr %24, align 1, !tbaa !42
  %26 = sext i8 %25 to i32
  %27 = icmp eq i32 %26, 47
  br i1 %27, label %28, label %78

28:                                               ; preds = %20
  %29 = load ptr, ptr %3, align 8, !tbaa !43
  %30 = load i32, ptr %5, align 4, !tbaa !46
  %31 = add nsw i32 %30, 1
  %32 = sext i32 %31 to i64
  %33 = getelementptr inbounds i8, ptr %29, i64 %32
  %34 = load i8, ptr %33, align 1, !tbaa !42
  %35 = sext i8 %34 to i32
  %36 = icmp eq i32 %35, 42
  br i1 %36, label %37, label %78

37:                                               ; preds = %28
  %38 = load i32, ptr %5, align 4, !tbaa !46
  %39 = add nsw i32 %38, 2
  store i32 %39, ptr %5, align 4, !tbaa !46
  br label %40

40:                                               ; preds = %72, %37
  %41 = load ptr, ptr %3, align 8, !tbaa !43
  %42 = icmp ne ptr %41, null
  br i1 %42, label %43, label %70

43:                                               ; preds = %40
  %44 = load ptr, ptr %3, align 8, !tbaa !43
  %45 = load i32, ptr %5, align 4, !tbaa !46
  %46 = sext i32 %45 to i64
  %47 = getelementptr inbounds i8, ptr %44, i64 %46
  %48 = load i8, ptr %47, align 1, !tbaa !42
  %49 = sext i8 %48 to i32
  %50 = icmp ne i32 %49, 0
  br i1 %50, label %51, label %70

51:                                               ; preds = %43
  %52 = load ptr, ptr %3, align 8, !tbaa !43
  %53 = load i32, ptr %5, align 4, !tbaa !46
  %54 = sext i32 %53 to i64
  %55 = getelementptr inbounds i8, ptr %52, i64 %54
  %56 = load i8, ptr %55, align 1, !tbaa !42
  %57 = sext i8 %56 to i32
  %58 = icmp ne i32 %57, 42
  br i1 %58, label %68, label %59

59:                                               ; preds = %51
  %60 = load ptr, ptr %3, align 8, !tbaa !43
  %61 = load i32, ptr %5, align 4, !tbaa !46
  %62 = add nsw i32 %61, 1
  %63 = sext i32 %62 to i64
  %64 = getelementptr inbounds i8, ptr %60, i64 %63
  %65 = load i8, ptr %64, align 1, !tbaa !42
  %66 = sext i8 %65 to i32
  %67 = icmp ne i32 %66, 47
  br label %68

68:                                               ; preds = %59, %51
  %69 = phi i1 [ true, %51 ], [ %67, %59 ]
  br label %70

70:                                               ; preds = %68, %43, %40
  %71 = phi i1 [ false, %43 ], [ false, %40 ], [ %69, %68 ]
  br i1 %71, label %72, label %75

72:                                               ; preds = %70
  %73 = load i32, ptr %5, align 4, !tbaa !46
  %74 = add nsw i32 %73, 1
  store i32 %74, ptr %5, align 4, !tbaa !46
  br label %40, !llvm.loop !57

75:                                               ; preds = %70
  %76 = load i32, ptr %5, align 4, !tbaa !46
  %77 = add nsw i32 %76, 1
  store i32 %77, ptr %5, align 4, !tbaa !46
  br label %170

78:                                               ; preds = %28, %20
  %79 = load ptr, ptr %3, align 8, !tbaa !43
  %80 = load i32, ptr %5, align 4, !tbaa !46
  %81 = sext i32 %80 to i64
  %82 = getelementptr inbounds i8, ptr %79, i64 %81
  %83 = load i8, ptr %82, align 1, !tbaa !42
  %84 = sext i8 %83 to i32
  %85 = icmp eq i32 %84, 47
  br i1 %85, label %86, label %123

86:                                               ; preds = %78
  %87 = load ptr, ptr %3, align 8, !tbaa !43
  %88 = load i32, ptr %5, align 4, !tbaa !46
  %89 = add nsw i32 %88, 1
  %90 = sext i32 %89 to i64
  %91 = getelementptr inbounds i8, ptr %87, i64 %90
  %92 = load i8, ptr %91, align 1, !tbaa !42
  %93 = sext i8 %92 to i32
  %94 = icmp eq i32 %93, 47
  br i1 %94, label %95, label %123

95:                                               ; preds = %86
  %96 = load i32, ptr %5, align 4, !tbaa !46
  %97 = add nsw i32 %96, 2
  store i32 %97, ptr %5, align 4, !tbaa !46
  br label %98

98:                                               ; preds = %119, %95
  %99 = load ptr, ptr %3, align 8, !tbaa !43
  %100 = icmp ne ptr %99, null
  br i1 %100, label %101, label %117

101:                                              ; preds = %98
  %102 = load ptr, ptr %3, align 8, !tbaa !43
  %103 = load i32, ptr %5, align 4, !tbaa !46
  %104 = sext i32 %103 to i64
  %105 = getelementptr inbounds i8, ptr %102, i64 %104
  %106 = load i8, ptr %105, align 1, !tbaa !42
  %107 = sext i8 %106 to i32
  %108 = icmp ne i32 %107, 0
  br i1 %108, label %109, label %117

109:                                              ; preds = %101
  %110 = load ptr, ptr %3, align 8, !tbaa !43
  %111 = load i32, ptr %5, align 4, !tbaa !46
  %112 = sext i32 %111 to i64
  %113 = getelementptr inbounds i8, ptr %110, i64 %112
  %114 = load i8, ptr %113, align 1, !tbaa !42
  %115 = sext i8 %114 to i32
  %116 = icmp ne i32 %115, 10
  br label %117

117:                                              ; preds = %109, %101, %98
  %118 = phi i1 [ false, %101 ], [ false, %98 ], [ %116, %109 ]
  br i1 %118, label %119, label %122

119:                                              ; preds = %117
  %120 = load i32, ptr %5, align 4, !tbaa !46
  %121 = add nsw i32 %120, 1
  store i32 %121, ptr %5, align 4, !tbaa !46
  br label %98, !llvm.loop !58

122:                                              ; preds = %117
  br label %169

123:                                              ; preds = %86, %78
  store i32 0, ptr %6, align 4, !tbaa !46
  br label %124

124:                                              ; preds = %153, %123
  %125 = load ptr, ptr %4, align 8, !tbaa !43
  %126 = icmp ne ptr %125, null
  br i1 %126, label %127, label %135

127:                                              ; preds = %124
  %128 = load ptr, ptr %4, align 8, !tbaa !43
  %129 = load i32, ptr %6, align 4, !tbaa !46
  %130 = sext i32 %129 to i64
  %131 = getelementptr inbounds i8, ptr %128, i64 %130
  %132 = load i8, ptr %131, align 1, !tbaa !42
  %133 = sext i8 %132 to i32
  %134 = icmp ne i32 %133, 0
  br label %135

135:                                              ; preds = %127, %124
  %136 = phi i1 [ false, %124 ], [ %134, %127 ]
  br i1 %136, label %137, label %156

137:                                              ; preds = %135
  %138 = load ptr, ptr %3, align 8, !tbaa !43
  %139 = load i32, ptr %5, align 4, !tbaa !46
  %140 = sext i32 %139 to i64
  %141 = getelementptr inbounds i8, ptr %138, i64 %140
  %142 = load i8, ptr %141, align 1, !tbaa !42
  %143 = sext i8 %142 to i32
  %144 = load ptr, ptr %4, align 8, !tbaa !43
  %145 = load i32, ptr %6, align 4, !tbaa !46
  %146 = sext i32 %145 to i64
  %147 = getelementptr inbounds i8, ptr %144, i64 %146
  %148 = load i8, ptr %147, align 1, !tbaa !42
  %149 = sext i8 %148 to i32
  %150 = icmp eq i32 %143, %149
  br i1 %150, label %151, label %152

151:                                              ; preds = %137
  br label %156

152:                                              ; preds = %137
  br label %153

153:                                              ; preds = %152
  %154 = load i32, ptr %6, align 4, !tbaa !46
  %155 = add nsw i32 %154, 1
  store i32 %155, ptr %6, align 4, !tbaa !46
  br label %124, !llvm.loop !59

156:                                              ; preds = %151, %135
  %157 = load ptr, ptr %4, align 8, !tbaa !43
  %158 = icmp ne ptr %157, null
  br i1 %158, label %159, label %168

159:                                              ; preds = %156
  %160 = load ptr, ptr %4, align 8, !tbaa !43
  %161 = load i32, ptr %6, align 4, !tbaa !46
  %162 = sext i32 %161 to i64
  %163 = getelementptr inbounds i8, ptr %160, i64 %162
  %164 = load i8, ptr %163, align 1, !tbaa !42
  %165 = sext i8 %164 to i32
  %166 = icmp ne i32 %165, 0
  br i1 %166, label %167, label %168

167:                                              ; preds = %159
  br label %174

168:                                              ; preds = %159, %156
  br label %169

169:                                              ; preds = %168, %122
  br label %170

170:                                              ; preds = %169, %75
  br label %171

171:                                              ; preds = %170
  %172 = load i32, ptr %5, align 4, !tbaa !46
  %173 = add nsw i32 %172, 1
  store i32 %173, ptr %5, align 4, !tbaa !46
  br label %7, !llvm.loop !60

174:                                              ; preds = %167, %18
  %175 = load i32, ptr %5, align 4, !tbaa !46
  %176 = sext i32 %175 to i64
  call void @llvm.lifetime.end.p0(i64 4, ptr %6) #8
  call void @llvm.lifetime.end.p0(i64 4, ptr %5) #8
  ret i64 %176
}