; Function Attrs: nofree norecurse nosync nounwind memory(argmem: read) uwtable
define internal fastcc range(i64 -2147483648, 2147483648) i64 @mod_strcspn(ptr noundef readonly captures(address_is_null) %0, ptr noundef readonly captures(address_is_null) %1) unnamed_addr #5 {
  %.not = icmp eq ptr %0, null
  br i1 %.not, label %.critedge, label %.lr.ph77

.lr.ph77:                                         ; preds = %2
  %.not57 = icmp eq ptr %1, null
  br i1 %.not57, label %.lr.ph77.split.us.split, label %.lr.ph77.split

.lr.ph77.split.us.split:                          ; preds = %.lr.ph77, %.critedge6.us
  %.04874.us = phi i32 [ %28, %.critedge6.us ], [ 0, %.lr.ph77 ]
  %3 = sext i32 %.04874.us to i64
  %4 = getelementptr inbounds i8, ptr %0, i64 %3
  %5 = load i8, ptr %4, align 1, !tbaa !33
  switch i8 %5, label %.critedge6.us [
    i8 0, label %.critedge
    i8 47, label %6
  ]

6:                                                ; preds = %.lr.ph77.split.us.split
  %7 = getelementptr i8, ptr %4, i64 1
  %8 = load i8, ptr %7, align 1, !tbaa !33
  switch i8 %8, label %.critedge6.us [
    i8 42, label %16
    i8 47, label %9
  ]

9:                                                ; preds = %6
  %10 = add i32 %.04874.us, 2
  %11 = sext i32 %10 to i64
  br label %12

12:                                               ; preds = %15, %9
  %indvars.iv94 = phi i64 [ %indvars.iv.next95, %15 ], [ %11, %9 ]
  %13 = getelementptr inbounds i8, ptr %0, i64 %indvars.iv94
  %14 = load i8, ptr %13, align 1, !tbaa !33
  switch i8 %14, label %15 [
    i8 0, label %.critedge6.us.loopexit
    i8 10, label %.critedge6.us.loopexit
  ]

15:                                               ; preds = %12
  %indvars.iv.next95 = add nsw i64 %indvars.iv94, 1
  br label %12, !llvm.loop !37

16:                                               ; preds = %6
  %17 = add i32 %.04874.us, 2
  %18 = sext i32 %17 to i64
  br label %19

19:                                               ; preds = %.critedge4.us, %16
  %indvars.iv97 = phi i64 [ %indvars.iv.next98, %.critedge4.us ], [ %18, %16 ]
  %20 = getelementptr inbounds i8, ptr %0, i64 %indvars.iv97
  %21 = load i8, ptr %20, align 1, !tbaa !33
  switch i8 %21, label %.critedge4.us [
    i8 0, label %.critedge2.us
    i8 42, label %22
  ]

22:                                               ; preds = %19
  %23 = getelementptr i8, ptr %20, i64 1
  %24 = load i8, ptr %23, align 1, !tbaa !33
  %.not64.us = icmp eq i8 %24, 47
  br i1 %.not64.us, label %.critedge2.us, label %.critedge4.us

.critedge2.us:                                    ; preds = %22, %19
  %25 = trunc nsw i64 %indvars.iv97 to i32
  %26 = add nsw i32 %25, 1
  br label %.critedge6.us

.critedge4.us:                                    ; preds = %22, %19
  %indvars.iv.next98 = add nsw i64 %indvars.iv97, 1
  br label %19, !llvm.loop !36

.critedge6.us.loopexit:                           ; preds = %12, %12
  %27 = trunc nsw i64 %indvars.iv94 to i32
  br label %.critedge6.us

.critedge6.us:                                    ; preds = %6, %.critedge6.us.loopexit, %.lr.ph77.split.us.split, %.critedge2.us
  %.3.us = phi i32 [ %26, %.critedge2.us ], [ %.04874.us, %.lr.ph77.split.us.split ], [ %27, %.critedge6.us.loopexit ], [ %.04874.us, %6 ]
  %28 = add nsw i32 %.3.us, 1
  br label %.lr.ph77.split.us.split

.lr.ph77.split:                                   ; preds = %.lr.ph77, %.critedge6
  %.04874 = phi i32 [ %60, %.critedge6 ], [ 0, %.lr.ph77 ]
  %29 = sext i32 %.04874 to i64
  %30 = getelementptr inbounds i8, ptr %0, i64 %29
  %31 = load i8, ptr %30, align 1, !tbaa !33
  switch i8 %31, label %.lr.ph.split [
    i8 0, label %.critedge
    i8 47, label %32
  ]

32:                                               ; preds = %.lr.ph77.split
  %33 = getelementptr i8, ptr %30, i64 1
  %34 = load i8, ptr %33, align 1, !tbaa !33
  switch i8 %34, label %.lr.ph.split [
    i8 42, label %35
    i8 47, label %46
  ]

35:                                               ; preds = %32
  %36 = add i32 %.04874, 2
  %37 = sext i32 %36 to i64
  br label %38

38:                                               ; preds = %.critedge4, %35
  %indvars.iv89 = phi i64 [ %indvars.iv.next90, %.critedge4 ], [ %37, %35 ]
  %39 = getelementptr inbounds i8, ptr %0, i64 %indvars.iv89
  %40 = load i8, ptr %39, align 1, !tbaa !33
  switch i8 %40, label %.critedge4 [
    i8 0, label %.critedge2
    i8 42, label %41
  ]

41:                                               ; preds = %38
  %42 = getelementptr i8, ptr %39, i64 1
  %43 = load i8, ptr %42, align 1, !tbaa !33
  %.not64 = icmp eq i8 %43, 47
  br i1 %.not64, label %.critedge2, label %.critedge4

.critedge4:                                       ; preds = %38, %41
  %indvars.iv.next90 = add nsw i64 %indvars.iv89, 1
  br label %38, !llvm.loop !36

.critedge2:                                       ; preds = %38, %41
  %44 = trunc nsw i64 %indvars.iv89 to i32
  %45 = add nsw i32 %44, 1
  br label %.critedge6

46:                                               ; preds = %32
  %47 = add i32 %.04874, 2
  %48 = sext i32 %47 to i64
  br label %49

49:                                               ; preds = %52, %46
  %indvars.iv = phi i64 [ %indvars.iv.next, %52 ], [ %48, %46 ]
  %50 = getelementptr inbounds i8, ptr %0, i64 %indvars.iv
  %51 = load i8, ptr %50, align 1, !tbaa !33
  switch i8 %51, label %52 [
    i8 0, label %.critedge6.loopexit85
    i8 10, label %.critedge6.loopexit85
  ]

52:                                               ; preds = %49
  %indvars.iv.next = add nsw i64 %indvars.iv, 1
  br label %49, !llvm.loop !37

.lr.ph.split:                                     ; preds = %32, %.lr.ph77.split
  %53 = load i8, ptr %1, align 1, !tbaa !33
  %.not5871 = icmp eq i8 %53, 0
  br i1 %.not5871, label %.critedge6, label %.lr.ph73

54:                                               ; preds = %.lr.ph73
  %indvars.iv.next93 = add nuw nsw i64 %indvars.iv92, 1
  %55 = getelementptr inbounds nuw i8, ptr %1, i64 %indvars.iv.next93
  %56 = load i8, ptr %55, align 1, !tbaa !33
  %.not58 = icmp eq i8 %56, 0
  br i1 %.not58, label %.critedge6, label %.lr.ph73

.lr.ph73:                                         ; preds = %.lr.ph.split, %54
  %indvars.iv92 = phi i64 [ %indvars.iv.next93, %54 ], [ 0, %.lr.ph.split ]
  %57 = phi i8 [ %56, %54 ], [ %53, %.lr.ph.split ]
  %58 = icmp eq i8 %31, %57
  br i1 %58, label %.critedge, label %54

.critedge6.loopexit85:                            ; preds = %49, %49
  %59 = trunc nsw i64 %indvars.iv to i32
  br label %.critedge6

.critedge6:                                       ; preds = %54, %.critedge6.loopexit85, %.lr.ph.split, %.critedge2
  %.3 = phi i32 [ %45, %.critedge2 ], [ %.04874, %.lr.ph.split ], [ %59, %.critedge6.loopexit85 ], [ %.04874, %54 ]
  %60 = add nsw i32 %.3, 1
  br label %.lr.ph77.split

.critedge:                                        ; preds = %.lr.ph77.split, %.lr.ph73, %.lr.ph77.split.us.split, %2
  %.04868 = phi i32 [ 0, %2 ], [ %.04874.us, %.lr.ph77.split.us.split ], [ %.04874, %.lr.ph73 ], [ %.04874, %.lr.ph77.split ]
  %61 = sext i32 %.04868 to i64
  ret i64 %61
}